target datalayout = "e-m:e-p270:32:32-p271:32:32-p272:64:64-i64:64-i128:128-f80:128-n8:16:32:64-S128"
target triple = "x86_64-pc-linux-gnu"

%struct.llhttp__internal_s = type { i32, ptr, ptr, i32, ptr, ptr, ptr, ptr, i64, i8, i8, i8, i8, i8, i16, i8, i8, i16, i16, i8, ptr }

; Function Attrs: nounwind uwtable
define i32 @llhttp__internal__c_mul_add_content_length_1(ptr noundef %0, ptr noundef %1, ptr noundef %2, i32 noundef %3) #0 {
  %5 = alloca i32, align 4
  %6 = alloca ptr, align 8
  %7 = alloca ptr, align 8
  %8 = alloca ptr, align 8
  %9 = alloca i32, align 4
  store ptr %0, ptr %6, align 8, !tbaa !3
  store ptr %1, ptr %7, align 8, !tbaa !8
  store ptr %2, ptr %8, align 8, !tbaa !8
  store i32 %3, ptr %9, align 4, !tbaa !17
  %10 = load ptr, ptr %6, align 8, !tbaa !3
  %11 = getelementptr inbounds nuw %struct.llhttp__internal_s, ptr %10, i32 0, i32 8
  %12 = load i64, ptr %11, align 8, !tbaa !24
  %13 = icmp ugt i64 %12, 1844674407370955161
  br i1 %13, label %14, label %15

14:                                               ; preds = %4
  store i32 1, ptr %5, align 4
  br label %49

15:                                               ; preds = %4
  %16 = load ptr, ptr %6, align 8, !tbaa !3
  %17 = getelementptr inbounds nuw %struct.llhttp__internal_s, ptr %16, i32 0, i32 8
  %18 = load i64, ptr %17, align 8, !tbaa !24
  %19 = mul i64 %18, 10
  store i64 %19, ptr %17, align 8, !tbaa !24
  %20 = load i32, ptr %9, align 4, !tbaa !17
  %21 = icmp sge i32 %20, 0
  br i1 %21, label %22, label %32

22:                                               ; preds = %15
  %23 = load ptr, ptr %6, align 8, !tbaa !3
  %24 = getelementptr inbounds nuw %struct.llhttp__internal_s, ptr %23, i32 0, i32 8
  %25 = load i64, ptr %24, align 8, !tbaa !24
  %26 = load i32, ptr %9, align 4, !tbaa !17
  %27 = sext i32 %26 to i64
  %28 = sub i64 -1, %27
  %29 = icmp ugt i64 %25, %28
  br i1 %29, label %30, label %31

30:                                               ; preds = %22
  store i32 1, ptr %5, align 4
  br label %49

31:                                               ; preds = %22
  br label %42

32:                                               ; preds = %15
  %33 = load ptr, ptr %6, align 8, !tbaa !3
  %34 = getelementptr inbounds nuw %struct.llhttp__internal_s, ptr %33, i32 0, i32 8
  %35 = load i64, ptr %34, align 8, !tbaa !24
  %36 = load i32, ptr %9, align 4, !tbaa !17
  %37 = sext i32 %36 to i64
  %38 = sub i64 0, %37
  %39 = icmp ult i64 %35, %38
  br i1 %39, label %40, label %41

40:                                               ; preds = %32
  store i32 1, ptr %5, align 4
  br label %49

41:                                               ; preds = %32
  br label %42

42:                                               ; preds = %41, %31
  %43 = load i32, ptr %9, align 4, !tbaa !17
  %44 = sext i32 %43 to i64
  %45 = load ptr, ptr %6, align 8, !tbaa !3
  %46 = getelementptr inbounds nuw %struct.llhttp__internal_s, ptr %45, i32 0, i32 8
  %47 = load i64, ptr %46, align 8, !tbaa !24
  %48 = add i64 %47, %44
  store i64 %48, ptr %46, align 8, !tbaa !24
  store i32 0, ptr %5, align 4
  br label %49

49:                                               ; preds = %42, %40, %30, %14
  %50 = load i32, ptr %5, align 4
  ret i32 %50
}