; Function Attrs: mustprogress nofree norecurse nosync nounwind willreturn memory(argmem: readwrite) uwtable
define range(i32 0, 2) i32 @llhttp__internal__c_mul_add_content_length_1(ptr noundef captures(none) %0, ptr noundef readnone captures(none) %1, ptr noundef readnone captures(none) %2, i32 noundef %3) local_unnamed_addr #2 {
  %5 = getelementptr inbounds nuw i8, ptr %0, i64 64
  %6 = load i64, ptr %5, align 8, !tbaa !20
  %7 = icmp ugt i64 %6, 1844674407370955161
  br i1 %7, label %21, label %8

8:                                                ; preds = %4
  %9 = mul nuw i64 %6, 10
  store i64 %9, ptr %5, align 8, !tbaa !20
  %10 = icmp sgt i32 %3, -1
  br i1 %10, label %11, label %15

11:                                               ; preds = %8
  %12 = xor i32 %3, -1
  %13 = sext i32 %12 to i64
  %14 = icmp ugt i64 %9, %13
  br i1 %14, label %21, label %._crit_edge

._crit_edge:                                      ; preds = %11
  %.pre = zext nneg i32 %3 to i64
  br label %19

15:                                               ; preds = %8
  %16 = sext i32 %3 to i64
  %17 = sub nsw i64 0, %16
  %18 = icmp ult i64 %9, %17
  br i1 %18, label %21, label %19

19:                                               ; preds = %._crit_edge, %15
  %.pre-phi = phi i64 [ %.pre, %._crit_edge ], [ %16, %15 ]
  %20 = add i64 %9, %.pre-phi
  store i64 %20, ptr %5, align 8, !tbaa !20
  br label %21

21:                                               ; preds = %15, %11, %4, %19
  %.0 = phi i32 [ 0, %19 ], [ 1, %4 ], [ 1, %11 ], [ 1, %15 ]
  ret i32 %.0
}